target datalayout = "e-m:e-p270:32:32-p271:32:32-p272:64:64-i64:64-i128:128-f80:128-n8:16:32:64-S128"
target triple = "x86_64-pc-linux-gnu"

%struct.AVFormatContext = type { ptr, ptr, ptr, ptr, ptr, i32, i32, ptr, i32, ptr, i32, ptr, ptr, i64, i64, i64, i32, i32, i32, i64, i64, ptr, i32, i32, ptr, i32, i32, i32, i32, ptr, i64, i32, i32, %struct.AVIOInterruptCB, i32, i32, i32, i32, i64, i32, i32, i32, i32, i32, i32, i32, i32, i32, i32, i32, i32, i64, i32, i32, i32, i32, i32, ptr, ptr, ptr, ptr, i32, ptr, ptr, ptr, ptr, i32, ptr, ptr, i64, ptr, ptr, ptr, i64 }
%struct.AVIOInterruptCB = type { ptr, ptr }
%struct.DASHContext = type { ptr, ptr, ptr, i32, i32, i32, i64, i64, i32, i32, i32, i32, ptr, i32, i64, i64, [100 x i8], i64, i64, [1024 x i8], ptr, ptr, ptr, ptr, ptr, ptr, ptr, i32, ptr, i32, i32, ptr, ptr, ptr, i32, i64, i32, ptr, i32, i32, i32, i32, i32, i32, i32, i32, i32, i32, i64, i64, i32, i64, i32, %struct.AVRational, %struct.AVRational, i64 }
%struct.AVRational = type { i32, i32 }
%struct.OutputStream = type { ptr, i32, i32, ptr, ptr, ptr, i32, [1024 x i8], i64, i64, i32, i32, i32, i32, i64, i64, i64, ptr, i64, i64, i64, i64, i64, i32, i32, i32, i32, ptr, ptr, ptr, ptr, ptr, [100 x i8], i32, [1024 x i8], [1024 x i8], [1024 x i8], double, %struct.AVProducerReferenceTime, [100 x i8], i32, i64, i32, i32, i64, %struct.AVRational, i32 }
%struct.AVProducerReferenceTime = type { i64, i32 }

@.str.99 = private unnamed_addr constant [5 x i8] c"%s%s\00", align 1

; Function Attrs: nounwind uwtable
define internal i32 @flush_init_segment(ptr noundef %0, ptr noundef %1) #0 {
  %3 = alloca i32, align 4
  %4 = alloca ptr, align 8
  %5 = alloca ptr, align 8
  %6 = alloca ptr, align 8
  %7 = alloca i32, align 4
  %8 = alloca i32, align 4
  %9 = alloca i32, align 4
  %10 = alloca [1024 x i8], align 16
  store ptr %0, ptr %4, align 8, !tbaa !4
  store ptr %1, ptr %5, align 8, !tbaa !35
  call void @llvm.lifetime.start.p0(i64 8, ptr %6) #13
  %11 = load ptr, ptr %4, align 8, !tbaa !4
  %12 = getelementptr inbounds nuw %struct.AVFormatContext, ptr %11, i32 0, i32 3
  %13 = load ptr, ptr %12, align 8, !tbaa !9
  store ptr %13, ptr %6, align 8, !tbaa !26
  call void @llvm.lifetime.start.p0(i64 4, ptr %7) #13
  call void @llvm.lifetime.start.p0(i64 4, ptr %8) #13
  %14 = load ptr, ptr %6, align 8, !tbaa !26
  %15 = load ptr, ptr %5, align 8, !tbaa !35
  %16 = call i32 @flush_dynbuf(ptr noundef %14, ptr noundef %15, ptr noundef %8)
  store i32 %16, ptr %7, align 4, !tbaa !28
  %17 = load i32, ptr %7, align 4, !tbaa !28
  %18 = icmp slt i32 %17, 0
  br i1 %18, label %19, label %21

19:                                               ; preds = %2
  %20 = load i32, ptr %7, align 4, !tbaa !28
  store i32 %20, ptr %3, align 4
  store i32 1, ptr %9, align 4
  br label %46

21:                                               ; preds = %2
  %22 = load i32, ptr %8, align 4, !tbaa !28
  %23 = load ptr, ptr %5, align 8, !tbaa !35
  %24 = getelementptr inbounds nuw %struct.OutputStream, ptr %23, i32 0, i32 10
  store i32 %22, ptr %24, align 8, !tbaa !112
  %25 = sext i32 %22 to i64
  %26 = load ptr, ptr %5, align 8, !tbaa !35
  %27 = getelementptr inbounds nuw %struct.OutputStream, ptr %26, i32 0, i32 9
  store i64 %25, ptr %27, align 8, !tbaa !201
  %28 = load ptr, ptr %6, align 8, !tbaa !26
  %29 = getelementptr inbounds nuw %struct.DASHContext, ptr %28, i32 0, i32 11
  %30 = load i32, ptr %29, align 4, !tbaa !113
  %31 = icmp ne i32 %30, 0
  br i1 %31, label %45, label %32

32:                                               ; preds = %21
  call void @llvm.lifetime.start.p0(i64 1024, ptr %10) #13
  %33 = getelementptr inbounds [1024 x i8], ptr %10, i64 0, i64 0
  %34 = load ptr, ptr %6, align 8, !tbaa !26
  %35 = getelementptr inbounds nuw %struct.DASHContext, ptr %34, i32 0, i32 19
  %36 = getelementptr inbounds [1024 x i8], ptr %35, i64 0, i64 0
  %37 = load ptr, ptr %5, align 8, !tbaa !35
  %38 = getelementptr inbounds nuw %struct.OutputStream, ptr %37, i32 0, i32 7
  %39 = getelementptr inbounds [1024 x i8], ptr %38, i64 0, i64 0
  %40 = call i32 (ptr, i64, ptr, ...) @snprintf(ptr noundef %33, i64 noundef 1024, ptr noundef @.str.99, ptr noundef %36, ptr noundef %39) #13
  %41 = load ptr, ptr %4, align 8, !tbaa !4
  %42 = load ptr, ptr %5, align 8, !tbaa !35
  %43 = getelementptr inbounds nuw %struct.OutputStream, ptr %42, i32 0, i32 3
  %44 = getelementptr inbounds [1024 x i8], ptr %10, i64 0, i64 0
  call void @dashenc_io_close(ptr noundef %41, ptr noundef %43, ptr noundef %44)
  call void @llvm.lifetime.end.p0(i64 1024, ptr %10) #13
  br label %45

45:                                               ; preds = %32, %21
  store i32 0, ptr %3, align 4
  store i32 1, ptr %9, align 4
  br label %46

46:                                               ; preds = %45, %19
  call void @llvm.lifetime.end.p0(i64 4, ptr %8) #13
  call void @llvm.lifetime.end.p0(i64 4, ptr %7) #13
  call void @llvm.lifetime.end.p0(i64 8, ptr %6) #13
  %47 = load i32, ptr %3, align 4
  ret i32 %47
}

; Function Attrs: nounwind uwtable
define internal i32 @dash_write_header(ptr noundef %0) #0 {
  %2 = alloca i32, align 4
  %3 = alloca ptr, align 8
  %4 = alloca ptr, align 8
  %5 = alloca i32, align 4
  %6 = alloca i32, align 4
  %7 = alloca ptr, align 8
  %8 = alloca i32, align 4
  store ptr %0, ptr %3, align 8, !tbaa !4
  call void @llvm.lifetime.start.p0(i64 8, ptr %4) #13
  %9 = load ptr, ptr %3, align 8, !tbaa !4
  %10 = getelementptr inbounds nuw %struct.AVFormatContext, ptr %9, i32 0, i32 3
  %11 = load ptr, ptr %10, align 8, !tbaa !9
  store ptr %11, ptr %4, align 8, !tbaa !26
  call void @llvm.lifetime.start.p0(i64 4, ptr %5) #13
  call void @llvm.lifetime.start.p0(i64 4, ptr %6) #13
  store i32 0, ptr %5, align 4, !tbaa !28
  br label %12

12:                                               ; preds = %48, %1
  %13 = load i32, ptr %5, align 4, !tbaa !28
  %14 = load ptr, ptr %3, align 8, !tbaa !4
  %15 = getelementptr inbounds nuw %struct.AVFormatContext, ptr %14, i32 0, i32 6
  %16 = load i32, ptr %15, align 4, !tbaa !29
  %17 = icmp ult i32 %13, %16
  br i1 %17, label %18, label %51

18:                                               ; preds = %12
  call void @llvm.lifetime.start.p0(i64 8, ptr %7) #13
  %19 = load ptr, ptr %4, align 8, !tbaa !26
  %20 = getelementptr inbounds nuw %struct.DASHContext, ptr %19, i32 0, i32 12
  %21 = load ptr, ptr %20, align 8, !tbaa !30
  %22 = load i32, ptr %5, align 4, !tbaa !28
  %23 = sext i32 %22 to i64
  %24 = getelementptr inbounds %struct.OutputStream, ptr %21, i64 %23
  store ptr %24, ptr %7, align 8, !tbaa !35
  %25 = load ptr, ptr %7, align 8, !tbaa !35
  %26 = getelementptr inbounds nuw %struct.OutputStream, ptr %25, i32 0, i32 0
  %27 = load ptr, ptr %26, align 8, !tbaa !36
  %28 = call i32 @avformat_write_header(ptr noundef %27, ptr noundef null)
  store i32 %28, ptr %6, align 4, !tbaa !28
  %29 = icmp slt i32 %28, 0
  br i1 %29, label %30, label %32

30:                                               ; preds = %18
  %31 = load i32, ptr %6, align 4, !tbaa !28
  store i32 %31, ptr %2, align 4
  store i32 1, ptr %8, align 4
  br label %45

32:                                               ; preds = %18
  %33 = load ptr, ptr %7, align 8, !tbaa !35
  %34 = getelementptr inbounds nuw %struct.OutputStream, ptr %33, i32 0, i32 26
  %35 = load i32, ptr %34, align 4, !tbaa !43
  %36 = icmp eq i32 %35, 2
  br i1 %36, label %37, label %44

37:                                               ; preds = %32
  %38 = load ptr, ptr %3, align 8, !tbaa !4
  %39 = load ptr, ptr %7, align 8, !tbaa !35
  %40 = call i32 @flush_init_segment(ptr noundef %38, ptr noundef %39)
  store i32 %40, ptr %6, align 4, !tbaa !28
  %41 = icmp slt i32 %40, 0
  br i1 %41, label %42, label %44

42:                                               ; preds = %37
  %43 = load i32, ptr %6, align 4, !tbaa !28
  store i32 %43, ptr %2, align 4
  store i32 1, ptr %8, align 4
  br label %45

44:                                               ; preds = %37, %32
  store i32 0, ptr %8, align 4
  br label %45

45:                                               ; preds = %44, %42, %30
  call void @llvm.lifetime.end.p0(i64 8, ptr %7) #13
  %46 = load i32, ptr %8, align 4
  switch i32 %46, label %52 [
    i32 0, label %47
  ]

47:                                               ; preds = %45
  br label %48

48:                                               ; preds = %47
  %49 = load i32, ptr %5, align 4, !tbaa !28
  %50 = add nsw i32 %49, 1
  store i32 %50, ptr %5, align 4, !tbaa !28
  br label %12, !llvm.loop !44

51:                                               ; preds = %12
  store i32 0, ptr %2, align 4
  store i32 1, ptr %8, align 4
  br label %52

52:                                               ; preds = %51, %45
  call void @llvm.lifetime.end.p0(i64 4, ptr %6) #13
  call void @llvm.lifetime.end.p0(i64 4, ptr %5) #13
  call void @llvm.lifetime.end.p0(i64 8, ptr %4) #13
  %53 = load i32, ptr %2, align 4
  ret i32 %53
}