; Function Attrs: nounwind uwtable
define internal range(i32 -2147483648, 1) i32 @dash_write_header(ptr noundef %0) #0 {
  %2 = alloca i32, align 4
  %3 = alloca [1024 x i8], align 16
  %4 = getelementptr inbounds nuw i8, ptr %0, i64 24
  %5 = getelementptr inbounds nuw i8, ptr %0, i64 44
  %6 = load i32, ptr %5, align 4, !tbaa !4
  %.not = icmp eq i32 %6, 0
  br i1 %.not, label %.loopexit, label %.lr.ph

.lr.ph:                                           ; preds = %1
  %7 = load ptr, ptr %4, align 8, !tbaa !24
  %8 = getelementptr inbounds nuw i8, ptr %7, i64 72
  br label %9

9:                                                ; preds = %.lr.ph, %35
  %indvars.iv = phi i64 [ 0, %.lr.ph ], [ %indvars.iv.next, %35 ]
  %10 = load ptr, ptr %8, align 8, !tbaa !25
  %11 = getelementptr inbounds nuw %struct.OutputStream, ptr %10, i64 %indvars.iv
  %12 = load ptr, ptr %11, align 8, !tbaa !30
  %13 = call i32 @avformat_write_header(ptr noundef %12, ptr noundef null) #15
  %14 = icmp slt i32 %13, 0
  br i1 %14, label %.loopexit, label %15

15:                                               ; preds = %9
  %16 = getelementptr inbounds nuw i8, ptr %11, i64 1188
  %17 = load i32, ptr %16, align 4, !tbaa !38
  %18 = icmp eq i32 %17, 2
  br i1 %18, label %19, label %35

19:                                               ; preds = %15
  %20 = load ptr, ptr %4, align 8, !tbaa !24
  call void @llvm.lifetime.start.p0(i64 4, ptr nonnull %2) #15
  %21 = call fastcc i32 @flush_dynbuf(ptr noundef %20, ptr noundef nonnull %11, ptr noundef %2)
  %22 = icmp slt i32 %21, 0
  br i1 %22, label %flush_init_segment.exit, label %23

23:                                               ; preds = %19
  %24 = load i32, ptr %2, align 4, !tbaa !39
  %25 = getelementptr inbounds nuw i8, ptr %11, i64 1088
  store i32 %24, ptr %25, align 8, !tbaa !40
  %26 = sext i32 %24 to i64
  %27 = getelementptr inbounds nuw i8, ptr %11, i64 1080
  store i64 %26, ptr %27, align 8, !tbaa !41
  %28 = getelementptr inbounds nuw i8, ptr %20, i64 68
  %29 = load i32, ptr %28, align 4, !tbaa !42
  %.not.i = icmp eq i32 %29, 0
  br i1 %.not.i, label %30, label %flush_init_segment.exit.thread

30:                                               ; preds = %23
  call void @llvm.lifetime.start.p0(i64 1024, ptr nonnull %3) #15
  %31 = getelementptr inbounds nuw i8, ptr %20, i64 224
  %32 = getelementptr inbounds nuw i8, ptr %11, i64 44
  %33 = call i32 (ptr, i64, ptr, ...) @snprintf(ptr noundef nonnull dereferenceable(1) %3, i64 noundef 1024, ptr noundef nonnull @.str.99, ptr noundef nonnull %31, ptr noundef nonnull %32) #15
  %34 = getelementptr inbounds nuw i8, ptr %11, i64 16
  call fastcc void @dashenc_io_close(ptr noundef nonnull %0, ptr noundef nonnull %34, ptr noundef nonnull %3)
  call void @llvm.lifetime.end.p0(i64 1024, ptr nonnull %3) #15
  br label %flush_init_segment.exit.thread

flush_init_segment.exit.thread:                   ; preds = %30, %23
  call void @llvm.lifetime.end.p0(i64 4, ptr nonnull %2) #15
  br label %35

flush_init_segment.exit:                          ; preds = %19
  call void @llvm.lifetime.end.p0(i64 4, ptr nonnull %2) #15
  br label %.loopexit

35:                                               ; preds = %flush_init_segment.exit.thread, %15
  %indvars.iv.next = add nuw nsw i64 %indvars.iv, 1
  %36 = load i32, ptr %5, align 4, !tbaa !4
  %37 = zext i32 %36 to i64
  %38 = icmp samesign ult i64 %indvars.iv.next, %37
  br i1 %38, label %9, label %.loopexit, !llvm.loop !43

.loopexit:                                        ; preds = %35, %9, %1, %flush_init_segment.exit
  %.2 = phi i32 [ %21, %flush_init_segment.exit ], [ 0, %1 ], [ 0, %35 ], [ %13, %9 ]
  ret i32 %.2
}